target datalayout = "e-m:e-p270:32:32-p271:32:32-p272:64:64-i64:64-i128:128-f80:128-n8:16:32:64-S128"
target triple = "x86_64-pc-linux-gnu"

%struct.AVFilterContext = type { ptr, ptr, ptr, ptr, ptr, i32, ptr, ptr, i32, ptr, ptr, i32, i32, ptr, ptr, ptr, ptr, i32, ptr, i32, i32 }
%struct.AudioAPContext = type { ptr, i32, i32, float, float, i32, i32, i32, ptr, ptr, ptr, ptr, ptr, ptr, ptr, ptr, ptr, ptr, ptr, ptr, ptr, [2 x ptr], ptr, ptr }

@query_formats.sample_fmts = internal constant [3 x [3 x i32]] [[3 x i32] [i32 8, i32 9, i32 -1], [3 x i32] [i32 8, i32 -1, i32 0], [3 x i32] [i32 9, i32 -1, i32 0]], align 16

; Function Attrs: nounwind uwtable
define internal i32 @query_formats(ptr noundef %0, ptr noundef %1, ptr noundef %2) #1 {
  %4 = alloca i32, align 4
  %5 = alloca ptr, align 8
  %6 = alloca ptr, align 8
  %7 = alloca ptr, align 8
  %8 = alloca ptr, align 8
  %9 = alloca i32, align 4
  %10 = alloca i32, align 4
  store ptr %0, ptr %5, align 8, !tbaa !4
  store ptr %1, ptr %6, align 8, !tbaa !29
  store ptr %2, ptr %7, align 8, !tbaa !29
  call void @llvm.lifetime.start.p0(i64 8, ptr %8) #8
  %11 = load ptr, ptr %5, align 8, !tbaa !4
  %12 = getelementptr inbounds nuw %struct.AVFilterContext, ptr %11, i32 0, i32 9
  %13 = load ptr, ptr %12, align 8, !tbaa !9
  store ptr %13, ptr %8, align 8, !tbaa !22
  call void @llvm.lifetime.start.p0(i64 4, ptr %9) #8
  %14 = load ptr, ptr %5, align 8, !tbaa !4
  %15 = load ptr, ptr %6, align 8, !tbaa !29
  %16 = load ptr, ptr %7, align 8, !tbaa !29
  %17 = load ptr, ptr %8, align 8, !tbaa !22
  %18 = getelementptr inbounds nuw %struct.AudioAPContext, ptr %17, i32 0, i32 6
  %19 = load i32, ptr %18, align 4, !tbaa !31
  %20 = sext i32 %19 to i64
  %21 = getelementptr inbounds [3 x [3 x i32]], ptr @query_formats.sample_fmts, i64 0, i64 %20
  %22 = getelementptr inbounds [3 x i32], ptr %21, i64 0, i64 0
  %23 = call i32 @ff_set_common_formats_from_list2(ptr noundef %14, ptr noundef %15, ptr noundef %16, ptr noundef %22)
  store i32 %23, ptr %9, align 4, !tbaa !32
  %24 = icmp slt i32 %23, 0
  br i1 %24, label %25, label %27

25:                                               ; preds = %3
  %26 = load i32, ptr %9, align 4, !tbaa !32
  store i32 %26, ptr %4, align 4
  store i32 1, ptr %10, align 4
  br label %28

27:                                               ; preds = %3
  store i32 0, ptr %4, align 4
  store i32 1, ptr %10, align 4
  br label %28

28:                                               ; preds = %27, %25
  call void @llvm.lifetime.end.p0(i64 4, ptr %9) #8
  call void @llvm.lifetime.end.p0(i64 8, ptr %8) #8
  %29 = load i32, ptr %4, align 4
  ret i32 %29
}